target datalayout = "e-m:e-p270:32:32-p271:32:32-p272:64:64-i64:64-i128:128-f80:128-n8:16:32:64-S128"
target triple = "x86_64-unknown-linux-gnu"

%struct.QemuMutex = type { %union.pthread_mutex_t, i8 }
%union.pthread_mutex_t = type { %struct.__pthread_mutex_s }
%struct.__pthread_mutex_s = type { i32, i32, i32, i32, i32, i16, i16, %struct.__pthread_internal_list }
%struct.__pthread_internal_list = type { ptr, ptr }
%struct.QemuEvent = type { i32, i8 }
%struct.RAMBlock = type { %struct.rcu_head, ptr, ptr, ptr, i64, i64, i64, ptr, i32, [256 x i8], %struct.anon.2, %struct.anon.3, i32, i64, i64, ptr, ptr, ptr, i8, i64 }
%struct.rcu_head = type { ptr, ptr }
%struct.anon.2 = type { ptr, ptr }
%struct.anon.3 = type { ptr }
%struct.RAMState = type { [2 x %struct.PageSearchStatus], i32, i64, ptr, i64, i32, i32, i64, i64, i64, i64, i64, i64, i8, i8, i64, i64, i64, %struct.QemuMutex, ptr, %struct.QemuMutex, %struct.anon.5, i32 }
%struct.PageSearchStatus = type { ptr, ptr, ptr, i64, i8, i8, i64, i64 }
%struct.anon.5 = type { ptr, ptr }
%struct.RAMSrcPageRequest = type { ptr, i64, i64, %struct.anon.10 }
%struct.anon.10 = type { ptr }
%struct.rcu_reader_data = type { i64, i8, i32, %struct.anon.12, %struct.NotifierList }
%struct.anon.12 = type { ptr, ptr }
%struct.NotifierList = type { %struct.anon.13 }
%struct.anon.13 = type { ptr }

@.str.28 = private unnamed_addr constant [97 x i8] c"/home/dtcxzyw/WorkSpace/Projects/compilers/llvm-opt-benchmark/bench/qemu/qemu/include/qemu/rcu.h\00", align 1
@__func__.rcu_read_lock = private unnamed_addr constant [14 x i8] c"rcu_read_lock\00", align 1
@rcu_gp_ctr = external global i64, align 8
@.str.60 = private unnamed_addr constant [25 x i8] c"p_rcu_reader->depth != 0\00", align 1
@__PRETTY_FUNCTION__.rcu_read_unlock = private unnamed_addr constant [27 x i8] c"void rcu_read_unlock(void)\00", align 1
@__func__.rcu_read_unlock = private unnamed_addr constant [16 x i8] c"rcu_read_unlock\00", align 1
@rcu_gp_event = external global %struct.QemuEvent, align 4

; Function Attrs: nounwind sspstrong uwtable
define internal void @rcu_read_unlock() #0 {
entry:
  %p_rcu_reader = alloca ptr, align 8
  %.atomictmp = alloca i64, align 8
  %tmp = alloca i8, align 1
  %atomic-temp = alloca i8, align 1
  %.atomictmp23 = alloca i8, align 1
  %call = call ptr @get_ptr_rcu_reader()
  store ptr %call, ptr %p_rcu_reader, align 8
  %0 = load ptr, ptr %p_rcu_reader, align 8
  %depth = getelementptr inbounds %struct.rcu_reader_data, ptr %0, i32 0, i32 2
  %1 = load i32, ptr %depth, align 4
  %cmp = icmp ne i32 %1, 0
  br i1 %cmp, label %if.then, label %if.else

if.then:                                          ; preds = %entry
  br label %if.end

if.else:                                          ; preds = %entry
  call void @__assert_fail(ptr noundef @.str.60, ptr noundef @.str.28, i32 noundef 101, ptr noundef @__PRETTY_FUNCTION__.rcu_read_unlock) #14
  unreachable

if.end:                                           ; preds = %if.then
  %2 = load ptr, ptr %p_rcu_reader, align 8
  %depth1 = getelementptr inbounds %struct.rcu_reader_data, ptr %2, i32 0, i32 2
  %3 = load i32, ptr %depth1, align 4
  %dec = add i32 %3, -1
  store i32 %dec, ptr %depth1, align 4
  %cmp2 = icmp ugt i32 %dec, 0
  br i1 %cmp2, label %if.then3, label %if.end4

if.then3:                                         ; preds = %if.end
  br label %if.end25

if.end4:                                          ; preds = %if.end
  br label %do.body

do.body:                                          ; preds = %if.end4
  br label %while.cond

while.cond:                                       ; preds = %do.end, %do.body
  br i1 false, label %while.body, label %while.end

while.body:                                       ; preds = %while.cond
  br label %do.body5

do.body5:                                         ; preds = %while.body
  call void @g_assertion_message_expr(ptr noundef null, ptr noundef @.str.28, i32 noundef 111, ptr noundef @__func__.rcu_read_unlock, ptr noundef null) #12
  unreachable

do.end:                                           ; No predecessors!
  br label %while.cond

while.end:                                        ; preds = %while.cond
  %4 = load ptr, ptr %p_rcu_reader, align 8
  %ctr = getelementptr inbounds %struct.rcu_reader_data, ptr %4, i32 0, i32 0
  store i64 0, ptr %.atomictmp, align 8
  %5 = load i64, ptr %.atomictmp, align 8
  store atomic i64 %5, ptr %ctr release, align 8
  br label %do.end6

do.end6:                                          ; preds = %while.end
  call void asm sideeffect "", "~{memory},~{dirflag},~{fpsr},~{flags}"() #13, !srcloc !83
  fence seq_cst
  br label %while.cond7

while.cond7:                                      ; preds = %do.end10, %do.end6
  br i1 false, label %while.body8, label %while.end11

while.body8:                                      ; preds = %while.cond7
  br label %do.body9

do.body9:                                         ; preds = %while.body8
  call void @g_assertion_message_expr(ptr noundef null, ptr noundef @.str.28, i32 noundef 115, ptr noundef @__func__.rcu_read_unlock, ptr noundef null) #12
  unreachable

do.end10:                                         ; No predecessors!
  br label %while.cond7

while.end11:                                      ; preds = %while.cond7
  %6 = load ptr, ptr %p_rcu_reader, align 8
  %waiting = getelementptr inbounds %struct.rcu_reader_data, ptr %6, i32 0, i32 1
  %7 = load atomic i8, ptr %waiting monotonic, align 8
  store i8 %7, ptr %atomic-temp, align 1
  %8 = load i8, ptr %atomic-temp, align 1
  %tobool = trunc i8 %8 to i1
  %frombool = zext i1 %tobool to i8
  store i8 %frombool, ptr %tmp, align 1
  %9 = load i8, ptr %tmp, align 1
  %tobool12 = trunc i8 %9 to i1
  %lnot = xor i1 %tobool12, true
  %lnot13 = xor i1 %lnot, true
  %lnot.ext = zext i1 %lnot13 to i32
  %conv = sext i32 %lnot.ext to i64
  %tobool14 = icmp ne i64 %conv, 0
  br i1 %tobool14, label %if.then15, label %if.end25

if.then15:                                        ; preds = %while.end11
  br label %do.body16

do.body16:                                        ; preds = %if.then15
  br label %while.cond17

while.cond17:                                     ; preds = %do.end20, %do.body16
  br i1 false, label %while.body18, label %while.end21

while.body18:                                     ; preds = %while.cond17
  br label %do.body19

do.body19:                                        ; preds = %while.body18
  call void @g_assertion_message_expr(ptr noundef null, ptr noundef @.str.28, i32 noundef 116, ptr noundef @__func__.rcu_read_unlock, ptr noundef null) #12
  unreachable

do.end20:                                         ; No predecessors!
  br label %while.cond17

while.end21:                                      ; preds = %while.cond17
  %10 = load ptr, ptr %p_rcu_reader, align 8
  %waiting22 = getelementptr inbounds %struct.rcu_reader_data, ptr %10, i32 0, i32 1
  store i8 0, ptr %.atomictmp23, align 1
  %11 = load i8, ptr %.atomictmp23, align 1
  store atomic i8 %11, ptr %waiting22 monotonic, align 8
  br label %do.end24

do.end24:                                         ; preds = %while.end21
  call void @qemu_event_set(ptr noundef @rcu_gp_event)
  br label %if.end25

if.end25:                                         ; preds = %do.end24, %while.end11, %if.then3
  ret void
}

; Function Attrs: nounwind sspstrong uwtable
define internal void @rcu_read_auto_unlock(ptr noundef %r) #0 {
entry:
  %r.addr = alloca ptr, align 8
  store ptr %r, ptr %r.addr, align 8
  call void @rcu_read_unlock()
  ret void
}

; Function Attrs: nounwind sspstrong uwtable
define internal void @glib_autoptr_clear_RCUReadAuto(ptr noundef %_ptr) #0 {
entry:
  %_ptr.addr = alloca ptr, align 8
  store ptr %_ptr, ptr %_ptr.addr, align 8
  %0 = load ptr, ptr %_ptr.addr, align 8
  %tobool = icmp ne ptr %0, null
  br i1 %tobool, label %if.then, label %if.end

if.then:                                          ; preds = %entry
  %1 = load ptr, ptr %_ptr.addr, align 8
  call void @rcu_read_auto_unlock(ptr noundef %1)
  br label %if.end

if.end:                                           ; preds = %if.then, %entry
  ret void
}

; Function Attrs: nounwind sspstrong uwtable
define internal void @rcu_read_lock() #0 {
entry:
  %p_rcu_reader = alloca ptr, align 8
  %ctr = alloca i32, align 4
  %tmp = alloca i64, align 8
  %atomic-temp = alloca i64, align 8
  %.atomictmp = alloca i64, align 8
  %call = call ptr @get_ptr_rcu_reader()
  store ptr %call, ptr %p_rcu_reader, align 8
  %0 = load ptr, ptr %p_rcu_reader, align 8
  %depth = getelementptr inbounds %struct.rcu_reader_data, ptr %0, i32 0, i32 2
  %1 = load i32, ptr %depth, align 4
  %inc = add i32 %1, 1
  store i32 %inc, ptr %depth, align 4
  %cmp = icmp ugt i32 %1, 0
  br i1 %cmp, label %if.then, label %if.end

if.then:                                          ; preds = %entry
  br label %return

if.end:                                           ; preds = %entry
  br label %while.cond

while.cond:                                       ; preds = %do.end, %if.end
  br i1 false, label %while.body, label %while.end

while.body:                                       ; preds = %while.cond
  br label %do.body

do.body:                                          ; preds = %while.body
  call void @g_assertion_message_expr(ptr noundef null, ptr noundef @.str.28, i32 noundef 87, ptr noundef @__func__.rcu_read_lock, ptr noundef null) #12
  unreachable

do.end:                                           ; No predecessors!
  br label %while.cond

while.end:                                        ; preds = %while.cond
  %2 = load atomic i64, ptr @rcu_gp_ctr monotonic, align 8
  store i64 %2, ptr %atomic-temp, align 8
  %3 = load i64, ptr %atomic-temp, align 8
  store i64 %3, ptr %tmp, align 8
  %4 = load i64, ptr %tmp, align 8
  %conv = trunc i64 %4 to i32
  store i32 %conv, ptr %ctr, align 4
  br label %do.body1

do.body1:                                         ; preds = %while.end
  br label %while.cond2

while.cond2:                                      ; preds = %do.end5, %do.body1
  br i1 false, label %while.body3, label %while.end6

while.body3:                                      ; preds = %while.cond2
  br label %do.body4

do.body4:                                         ; preds = %while.body3
  call void @g_assertion_message_expr(ptr noundef null, ptr noundef @.str.28, i32 noundef 88, ptr noundef @__func__.rcu_read_lock, ptr noundef null) #12
  unreachable

do.end5:                                          ; No predecessors!
  br label %while.cond2

while.end6:                                       ; preds = %while.cond2
  %5 = load ptr, ptr %p_rcu_reader, align 8
  %ctr7 = getelementptr inbounds %struct.rcu_reader_data, ptr %5, i32 0, i32 0
  %6 = load i32, ptr %ctr, align 4
  %conv8 = zext i32 %6 to i64
  store i64 %conv8, ptr %.atomictmp, align 8
  %7 = load i64, ptr %.atomictmp, align 8
  store atomic i64 %7, ptr %ctr7 monotonic, align 8
  br label %do.end9

do.end9:                                          ; preds = %while.end6
  call void asm sideeffect "", "~{memory},~{dirflag},~{fpsr},~{flags}"() #13, !srcloc !77
  fence seq_cst
  br label %return

return:                                           ; preds = %do.end9, %if.then
  ret void
}

; Function Attrs: nounwind sspstrong uwtable
define internal void @glib_autoptr_cleanup_RCUReadAuto(ptr noundef %_ptr) #0 {
entry:
  %_ptr.addr = alloca ptr, align 8
  store ptr %_ptr, ptr %_ptr.addr, align 8
  %0 = load ptr, ptr %_ptr.addr, align 8
  %1 = load ptr, ptr %0, align 8
  call void @glib_autoptr_clear_RCUReadAuto(ptr noundef %1)
  ret void
}

; Function Attrs: nounwind sspstrong uwtable
define internal ptr @rcu_read_auto_lock() #0 {
entry:
  call void @rcu_read_lock()
  %0 = inttoptr i64 1 to ptr
  ret ptr %0
}

; Function Attrs: nounwind sspstrong uwtable
define internal void @migration_page_queue_free(ptr noundef %rs) #0 {
entry:
  %rs.addr = alloca ptr, align 8
  %mspr = alloca ptr, align 8
  %next_mspr = alloca ptr, align 8
  %_rcu_read_auto = alloca ptr, align 8
  %elm = alloca ptr, align 8
  store ptr %rs, ptr %rs.addr, align 8
  %call = call ptr @rcu_read_auto_lock()
  store ptr %call, ptr %_rcu_read_auto, align 8
  %0 = load ptr, ptr %rs.addr, align 8
  %src_page_requests = getelementptr inbounds %struct.RAMState, ptr %0, i32 0, i32 21
  %sqh_first = getelementptr inbounds %struct.anon.5, ptr %src_page_requests, i32 0, i32 0
  %1 = load ptr, ptr %sqh_first, align 8
  store ptr %1, ptr %mspr, align 8
  br label %for.cond

for.cond:                                         ; preds = %for.inc, %entry
  %2 = load ptr, ptr %mspr, align 8
  %tobool = icmp ne ptr %2, null
  br i1 %tobool, label %land.rhs, label %land.end

land.rhs:                                         ; preds = %for.cond
  %3 = load ptr, ptr %mspr, align 8
  %next_req = getelementptr inbounds %struct.RAMSrcPageRequest, ptr %3, i32 0, i32 3
  %sqe_next = getelementptr inbounds %struct.anon.10, ptr %next_req, i32 0, i32 0
  %4 = load ptr, ptr %sqe_next, align 8
  store ptr %4, ptr %next_mspr, align 8
  br label %land.end

land.end:                                         ; preds = %land.rhs, %for.cond
  %5 = phi i1 [ false, %for.cond ], [ true, %land.rhs ]
  br i1 %5, label %for.body, label %for.end

for.body:                                         ; preds = %land.end
  %6 = load ptr, ptr %mspr, align 8
  %rb = getelementptr inbounds %struct.RAMSrcPageRequest, ptr %6, i32 0, i32 0
  %7 = load ptr, ptr %rb, align 8
  %mr = getelementptr inbounds %struct.RAMBlock, ptr %7, i32 0, i32 1
  %8 = load ptr, ptr %mr, align 8
  call void @memory_region_unref(ptr noundef %8)
  br label %do.body

do.body:                                          ; preds = %for.body
  %9 = load ptr, ptr %rs.addr, align 8
  %src_page_requests1 = getelementptr inbounds %struct.RAMState, ptr %9, i32 0, i32 21
  %sqh_first2 = getelementptr inbounds %struct.anon.5, ptr %src_page_requests1, i32 0, i32 0
  %10 = load ptr, ptr %sqh_first2, align 8
  store ptr %10, ptr %elm, align 8
  %11 = load ptr, ptr %elm, align 8
  %next_req3 = getelementptr inbounds %struct.RAMSrcPageRequest, ptr %11, i32 0, i32 3
  %sqe_next4 = getelementptr inbounds %struct.anon.10, ptr %next_req3, i32 0, i32 0
  %12 = load ptr, ptr %sqe_next4, align 8
  %13 = load ptr, ptr %rs.addr, align 8
  %src_page_requests5 = getelementptr inbounds %struct.RAMState, ptr %13, i32 0, i32 21
  %sqh_first6 = getelementptr inbounds %struct.anon.5, ptr %src_page_requests5, i32 0, i32 0
  store ptr %12, ptr %sqh_first6, align 8
  %cmp = icmp eq ptr %12, null
  br i1 %cmp, label %if.then, label %if.end

if.then:                                          ; preds = %do.body
  %14 = load ptr, ptr %rs.addr, align 8
  %src_page_requests7 = getelementptr inbounds %struct.RAMState, ptr %14, i32 0, i32 21
  %sqh_first8 = getelementptr inbounds %struct.anon.5, ptr %src_page_requests7, i32 0, i32 0
  %15 = load ptr, ptr %rs.addr, align 8
  %src_page_requests9 = getelementptr inbounds %struct.RAMState, ptr %15, i32 0, i32 21
  %sqh_last = getelementptr inbounds %struct.anon.5, ptr %src_page_requests9, i32 0, i32 1
  store ptr %sqh_first8, ptr %sqh_last, align 8
  br label %if.end

if.end:                                           ; preds = %if.then, %do.body
  %16 = load ptr, ptr %elm, align 8
  %next_req10 = getelementptr inbounds %struct.RAMSrcPageRequest, ptr %16, i32 0, i32 3
  %sqe_next11 = getelementptr inbounds %struct.anon.10, ptr %next_req10, i32 0, i32 0
  store ptr null, ptr %sqe_next11, align 8
  br label %do.cond

do.cond:                                          ; preds = %if.end
  br label %do.end

do.end:                                           ; preds = %do.cond
  %17 = load ptr, ptr %mspr, align 8
  call void @g_free(ptr noundef %17)
  br label %for.inc

for.inc:                                          ; preds = %do.end
  %18 = load ptr, ptr %next_mspr, align 8
  store ptr %18, ptr %mspr, align 8
  br label %for.cond, !llvm.loop !88

for.end:                                          ; preds = %land.end
  call void @glib_autoptr_cleanup_RCUReadAuto(ptr noundef %_rcu_read_auto)
  ret void
}

; Function Attrs: nounwind sspstrong uwtable
define internal void @ram_state_cleanup(ptr noundef %rsp) #0 {
entry:
  %rsp.addr = alloca ptr, align 8
  store ptr %rsp, ptr %rsp.addr, align 8
  %0 = load ptr, ptr %rsp.addr, align 8
  %1 = load ptr, ptr %0, align 8
  %tobool = icmp ne ptr %1, null
  br i1 %tobool, label %if.then, label %if.end

if.then:                                          ; preds = %entry
  %2 = load ptr, ptr %rsp.addr, align 8
  %3 = load ptr, ptr %2, align 8
  call void @migration_page_queue_free(ptr noundef %3)
  %4 = load ptr, ptr %rsp.addr, align 8
  %5 = load ptr, ptr %4, align 8
  %bitmap_mutex = getelementptr inbounds %struct.RAMState, ptr %5, i32 0, i32 18
  call void @qemu_mutex_destroy(ptr noundef %bitmap_mutex)
  %6 = load ptr, ptr %rsp.addr, align 8
  %7 = load ptr, ptr %6, align 8
  %src_page_req_mutex = getelementptr inbounds %struct.RAMState, ptr %7, i32 0, i32 20
  call void @qemu_mutex_destroy(ptr noundef %src_page_req_mutex)
  %8 = load ptr, ptr %rsp.addr, align 8
  %9 = load ptr, ptr %8, align 8
  call void @g_free(ptr noundef %9)
  %10 = load ptr, ptr %rsp.addr, align 8
  store ptr null, ptr %10, align 8
  br label %if.end

if.end:                                           ; preds = %if.then, %entry
  ret void
}