; Function Attrs: nounwind sspstrong uwtable
define internal fastcc void @ram_state_cleanup(ptr noundef captures(none) %rsp) unnamed_addr #0 {
entry:
  %0 = load ptr, ptr %rsp, align 8
  %tobool.not = icmp eq ptr %0, null
  br i1 %tobool.not, label %if.end, label %if.then

if.then:                                          ; preds = %entry
  %call.i.i.i = tail call ptr @get_ptr_rcu_reader() #18
  %depth.i.i.i = getelementptr inbounds nuw i8, ptr %call.i.i.i, i64 12
  %1 = load i32, ptr %depth.i.i.i, align 4
  %inc.i.i.i = add i32 %1, 1
  store i32 %inc.i.i.i, ptr %depth.i.i.i, align 4
  %cmp.not.i.i.i = icmp eq i32 %1, 0
  br i1 %cmp.not.i.i.i, label %while.end.i.i.i, label %rcu_read_auto_lock.exit.i

while.end.i.i.i:                                  ; preds = %if.then
  %2 = load atomic i64, ptr @rcu_gp_ctr monotonic, align 8
  %conv8.i.i.i = and i64 %2, 4294967295
  store atomic i64 %conv8.i.i.i, ptr %call.i.i.i monotonic, align 8
  tail call void asm sideeffect "", "~{memory},~{dirflag},~{fpsr},~{flags}"() #18, !srcloc !5
  fence seq_cst
  br label %rcu_read_auto_lock.exit.i

rcu_read_auto_lock.exit.i:                        ; preds = %while.end.i.i.i, %if.then
  %src_page_requests.i = getelementptr inbounds nuw i8, ptr %0, i64 336
  %3 = load ptr, ptr %src_page_requests.i, align 8
  %tobool.not9.i = icmp eq ptr %3, null
  br i1 %tobool.not9.i, label %if.then.i.i.i, label %land.rhs.lr.ph.i

land.rhs.lr.ph.i:                                 ; preds = %rcu_read_auto_lock.exit.i
  %sqh_last.i = getelementptr inbounds nuw i8, ptr %0, i64 344
  br label %land.rhs.i

land.rhs.i:                                       ; preds = %if.end.i, %land.rhs.lr.ph.i
  %mspr.010.i = phi ptr [ %3, %land.rhs.lr.ph.i ], [ %4, %if.end.i ]
  %next_req.i = getelementptr inbounds nuw i8, ptr %mspr.010.i, i64 24
  %4 = load ptr, ptr %next_req.i, align 8
  %5 = load ptr, ptr %mspr.010.i, align 8
  %mr.i = getelementptr inbounds nuw i8, ptr %5, i64 16
  %6 = load ptr, ptr %mr.i, align 8
  tail call void @memory_region_unref(ptr noundef %6) #18
  %7 = load ptr, ptr %src_page_requests.i, align 8
  %next_req3.i = getelementptr inbounds nuw i8, ptr %7, i64 24
  %8 = load ptr, ptr %next_req3.i, align 8
  store ptr %8, ptr %src_page_requests.i, align 8
  %cmp.i = icmp eq ptr %8, null
  br i1 %cmp.i, label %if.then.i, label %if.end.i

if.then.i:                                        ; preds = %land.rhs.i
  store ptr %src_page_requests.i, ptr %sqh_last.i, align 8
  br label %if.end.i

if.end.i:                                         ; preds = %if.then.i, %land.rhs.i
  store ptr null, ptr %next_req3.i, align 8
  tail call void @g_free(ptr noundef nonnull %mspr.010.i) #18
  %tobool.not.i = icmp eq ptr %4, null
  br i1 %tobool.not.i, label %if.then.i.i.i, label %land.rhs.i, !llvm.loop !73

if.then.i.i.i:                                    ; preds = %if.end.i, %rcu_read_auto_lock.exit.i
  %call.i.i.i.i.i = tail call ptr @get_ptr_rcu_reader() #18
  %depth.i.i.i.i.i = getelementptr inbounds nuw i8, ptr %call.i.i.i.i.i, i64 12
  %9 = load i32, ptr %depth.i.i.i.i.i, align 4
  %cmp.not.i.i.i.i.i = icmp eq i32 %9, 0
  br i1 %cmp.not.i.i.i.i.i, label %if.else.i.i.i.i.i, label %if.end.i.i.i.i.i

if.else.i.i.i.i.i:                                ; preds = %if.then.i.i.i
  tail call void @__assert_fail(ptr noundef nonnull @.str.60, ptr noundef nonnull @.str.28, i32 noundef 101, ptr noundef nonnull @__PRETTY_FUNCTION__.rcu_read_unlock) #19
  unreachable

if.end.i.i.i.i.i:                                 ; preds = %if.then.i.i.i
  %dec.i.i.i.i.i = add i32 %9, -1
  store i32 %dec.i.i.i.i.i, ptr %depth.i.i.i.i.i, align 4
  %cmp2.not.i.i.i.i.i = icmp eq i32 %dec.i.i.i.i.i, 0
  br i1 %cmp2.not.i.i.i.i.i, label %while.end.i.i.i.i.i, label %migration_page_queue_free.exit

while.end.i.i.i.i.i:                              ; preds = %if.end.i.i.i.i.i
  store atomic i64 0, ptr %call.i.i.i.i.i release, align 8
  tail call void asm sideeffect "", "~{memory},~{dirflag},~{fpsr},~{flags}"() #18, !srcloc !10
  fence seq_cst
  %waiting.i.i.i.i.i = getelementptr inbounds nuw i8, ptr %call.i.i.i.i.i, i64 8
  %10 = load atomic i8, ptr %waiting.i.i.i.i.i monotonic, align 8
  %tobool.i.i.i.i.i = trunc i8 %10 to i1
  br i1 %tobool.i.i.i.i.i, label %while.end21.i.i.i.i.i, label %migration_page_queue_free.exit

while.end21.i.i.i.i.i:                            ; preds = %while.end.i.i.i.i.i
  store atomic i8 0, ptr %waiting.i.i.i.i.i monotonic, align 8
  tail call void @qemu_event_set(ptr noundef nonnull @rcu_gp_event) #18
  br label %migration_page_queue_free.exit

migration_page_queue_free.exit:                   ; preds = %if.end.i.i.i.i.i, %while.end.i.i.i.i.i, %while.end21.i.i.i.i.i
  %11 = load ptr, ptr %rsp, align 8
  %bitmap_mutex = getelementptr inbounds nuw i8, ptr %11, i64 232
  tail call void @qemu_mutex_destroy(ptr noundef nonnull %bitmap_mutex) #18
  %12 = load ptr, ptr %rsp, align 8
  %src_page_req_mutex = getelementptr inbounds nuw i8, ptr %12, i64 288
  tail call void @qemu_mutex_destroy(ptr noundef nonnull %src_page_req_mutex) #18
  %13 = load ptr, ptr %rsp, align 8
  tail call void @g_free(ptr noundef %13) #18
  store ptr null, ptr %rsp, align 8
  br label %if.end

if.end:                                           ; preds = %migration_page_queue_free.exit, %entry
  ret void
}